target datalayout = "e-m:e-p270:32:32-p271:32:32-p272:64:64-i64:64-i128:128-f80:128-n8:16:32:64-S128"
target triple = "x86_64-pc-linux-gnu"

; Function Attrs: nounwind uwtable
define internal i64 @image_sad(ptr noundef %0, ptr noundef %1, i32 noundef %2, i32 noundef %3, i64 noundef %4, i64 noundef %5) #0 {
  %7 = alloca ptr, align 8
  %8 = alloca ptr, align 8
  %9 = alloca i32, align 4
  %10 = alloca i32, align 4
  %11 = alloca i64, align 8
  %12 = alloca i64, align 8
  %13 = alloca i64, align 8
  %14 = alloca i64, align 8
  %15 = alloca i64, align 8
  %16 = alloca i32, align 4
  %17 = alloca i32, align 4
  store ptr %0, ptr %7, align 8, !tbaa !26
  store ptr %1, ptr %8, align 8, !tbaa !26
  store i32 %2, ptr %9, align 4, !tbaa !23
  store i32 %3, ptr %10, align 4, !tbaa !23
  store i64 %4, ptr %11, align 8, !tbaa !30
  store i64 %5, ptr %12, align 8, !tbaa !30
  call void @llvm.lifetime.start.p0(i64 8, ptr %13) #10
  %18 = load i64, ptr %11, align 8, !tbaa !30
  %19 = udiv i64 %18, 2
  store i64 %19, ptr %13, align 8, !tbaa !30
  call void @llvm.lifetime.start.p0(i64 8, ptr %14) #10
  %20 = load i64, ptr %12, align 8, !tbaa !30
  %21 = udiv i64 %20, 2
  store i64 %21, ptr %14, align 8, !tbaa !30
  call void @llvm.lifetime.start.p0(i64 8, ptr %15) #10
  store i64 0, ptr %15, align 8, !tbaa !30
  call void @llvm.lifetime.start.p0(i64 4, ptr %16) #10
  call void @llvm.lifetime.start.p0(i64 4, ptr %17) #10
  store i32 0, ptr %16, align 4, !tbaa !23
  br label %22

22:                                               ; preds = %59, %6
  %23 = load i32, ptr %16, align 4, !tbaa !23
  %24 = load i32, ptr %10, align 4, !tbaa !23
  %25 = icmp slt i32 %23, %24
  br i1 %25, label %26, label %62

26:                                               ; preds = %22
  store i32 0, ptr %17, align 4, !tbaa !23
  br label %27

27:                                               ; preds = %49, %26
  %28 = load i32, ptr %17, align 4, !tbaa !23
  %29 = load i32, ptr %9, align 4, !tbaa !23
  %30 = icmp slt i32 %28, %29
  br i1 %30, label %31, label %52

31:                                               ; preds = %27
  %32 = load ptr, ptr %7, align 8, !tbaa !26
  %33 = load i32, ptr %17, align 4, !tbaa !23
  %34 = sext i32 %33 to i64
  %35 = getelementptr inbounds i16, ptr %32, i64 %34
  %36 = load i16, ptr %35, align 2, !tbaa !36
  %37 = zext i16 %36 to i32
  %38 = load ptr, ptr %8, align 8, !tbaa !26
  %39 = load i32, ptr %17, align 4, !tbaa !23
  %40 = sext i32 %39 to i64
  %41 = getelementptr inbounds i16, ptr %38, i64 %40
  %42 = load i16, ptr %41, align 2, !tbaa !36
  %43 = zext i16 %42 to i32
  %44 = sub nsw i32 %37, %43
  %45 = call i32 @llvm.abs.i32(i32 %44, i1 true)
  %46 = sext i32 %45 to i64
  %47 = load i64, ptr %15, align 8, !tbaa !30
  %48 = add i64 %47, %46
  store i64 %48, ptr %15, align 8, !tbaa !30
  br label %49

49:                                               ; preds = %31
  %50 = load i32, ptr %17, align 4, !tbaa !23
  %51 = add nsw i32 %50, 1
  store i32 %51, ptr %17, align 4, !tbaa !23
  br label %27, !llvm.loop !102

52:                                               ; preds = %27
  %53 = load i64, ptr %13, align 8, !tbaa !30
  %54 = load ptr, ptr %7, align 8, !tbaa !26
  %55 = getelementptr inbounds i16, ptr %54, i64 %53
  store ptr %55, ptr %7, align 8, !tbaa !26
  %56 = load i64, ptr %14, align 8, !tbaa !30
  %57 = load ptr, ptr %8, align 8, !tbaa !26
  %58 = getelementptr inbounds i16, ptr %57, i64 %56
  store ptr %58, ptr %8, align 8, !tbaa !26
  br label %59

59:                                               ; preds = %52
  %60 = load i32, ptr %16, align 4, !tbaa !23
  %61 = add nsw i32 %60, 1
  store i32 %61, ptr %16, align 4, !tbaa !23
  br label %22, !llvm.loop !103

62:                                               ; preds = %22
  %63 = load i64, ptr %15, align 8, !tbaa !30
  call void @llvm.lifetime.end.p0(i64 4, ptr %17) #10
  call void @llvm.lifetime.end.p0(i64 4, ptr %16) #10
  call void @llvm.lifetime.end.p0(i64 8, ptr %15) #10
  call void @llvm.lifetime.end.p0(i64 8, ptr %14) #10
  call void @llvm.lifetime.end.p0(i64 8, ptr %13) #10
  ret i64 %63
}