; Function Attrs: nofree norecurse nosync nounwind memory(argmem: read) uwtable
define internal i64 @image_sad(ptr noundef readonly captures(none) %0, ptr noundef readonly captures(none) %1, i32 noundef %2, i32 noundef %3, i64 noundef %4, i64 noundef %5) #6 {
  %7 = lshr i64 %4, 1
  %8 = lshr i64 %5, 1
  %9 = icmp sgt i32 %3, 0
  %10 = icmp sgt i32 %2, 0
  %or.cond = and i1 %9, %10
  br i1 %or.cond, label %.preheader.us.preheader, label %._crit_edge27

.preheader.us.preheader:                          ; preds = %6
  %wide.trip.count = zext nneg i32 %2 to i64
  br label %.preheader.us

.preheader.us:                                    ; preds = %.preheader.us.preheader, %._crit_edge.us
  %.01726.us = phi i32 [ %24, %._crit_edge.us ], [ 0, %.preheader.us.preheader ]
  %.01825.us = phi i64 [ %21, %._crit_edge.us ], [ 0, %.preheader.us.preheader ]
  %.01924.us = phi ptr [ %22, %._crit_edge.us ], [ %0, %.preheader.us.preheader ]
  %.02023.us = phi ptr [ %23, %._crit_edge.us ], [ %1, %.preheader.us.preheader ]
  br label %11

11:                                               ; preds = %.preheader.us, %11
  %indvars.iv = phi i64 [ 0, %.preheader.us ], [ %indvars.iv.next, %11 ]
  %.121.us = phi i64 [ %.01825.us, %.preheader.us ], [ %21, %11 ]
  %12 = getelementptr inbounds nuw i16, ptr %.01924.us, i64 %indvars.iv
  %13 = load i16, ptr %12, align 2, !tbaa !28
  %14 = zext i16 %13 to i32
  %15 = getelementptr inbounds nuw i16, ptr %.02023.us, i64 %indvars.iv
  %16 = load i16, ptr %15, align 2, !tbaa !28
  %17 = zext i16 %16 to i32
  %18 = sub nsw i32 %14, %17
  %19 = tail call i32 @llvm.abs.i32(i32 %18, i1 true)
  %20 = zext nneg i32 %19 to i64
  %21 = add i64 %.121.us, %20
  %indvars.iv.next = add nuw nsw i64 %indvars.iv, 1
  %exitcond.not = icmp eq i64 %indvars.iv.next, %wide.trip.count
  br i1 %exitcond.not, label %._crit_edge.us, label %11, !llvm.loop !86

._crit_edge.us:                                   ; preds = %11
  %22 = getelementptr inbounds nuw i16, ptr %.01924.us, i64 %7
  %23 = getelementptr inbounds nuw i16, ptr %.02023.us, i64 %8
  %24 = add nuw nsw i32 %.01726.us, 1
  %exitcond31.not = icmp eq i32 %24, %3
  br i1 %exitcond31.not, label %._crit_edge27, label %.preheader.us, !llvm.loop !87

._crit_edge27:                                    ; preds = %._crit_edge.us, %6
  %.018.lcssa = phi i64 [ 0, %6 ], [ %21, %._crit_edge.us ]
  ret i64 %.018.lcssa
}